cfast_pb2
Data
p0
(tRp1
(dp2
S'serialized'
p3
S'\n\xfc\x06\x08\x00B\xd3\x06\x08\x06*\xca\x06/*#include &lt;iostream&gt;\n#include &lt;Windows.h&gt;\n#include &lt;time.h&gt;\nusing namespace std;\nint arr[7];\nint i;\nvoid selectionSort(int arr[], int n) {\n      int i, j, minIndex, tmp;    \n      for (i = 0; i &lt; n - 1; i++) {\n            minIndex = i;\n            for (j = i + 1; j &lt; n; j++)\n                  if (arr[j] &lt; arr[minIndex])\n                        minIndex = j;\n            if (minIndex != i) {\n                  tmp = arr[i];\n                  arr[i] = arr[minIndex];\n                  arr[minIndex] = tmp;\n            }\n      }\n}\nint main()\n{\n\tsrand(time(0));\n\tint i = rand();\n\tfor (int i = 0; i &lt;= sizeof (arr)/sizeof (int); i++)\n\t{\n\t\tarr [i]=rand();\n\t}\n\tselectionSort(arr, 7);\n\tfor (int i = 6; i&gt;= 0; i--)\n\t{\n\t\tcout &lt;&lt; arr[i] &lt;&lt; endl;\n\t\tSleep (rand()%2000);\n\t}\n\tsystem ("pause");\n\treturn 0;\n}*/`\x01h\x01R"\n\x17bubblesort/cpp/2528.cpp\x12\x050.9.5\x18\x03'
p4
sb.