cfast_pb2
Data
p0
(tRp1
(dp2
S'serialized'
p3
S'\ng\x08\x00B>\x08\x06*3// This is quicksort algorithm implemented in Java.J\x01\n`\x01h\x01R#\n\x18quicksort/java/2126.java\x12\x050.9.5\x18\x06'
p4
sb.