cfast_pb2
Data
p0
(tRp1
(dp2
S'serialized'
p3
S'\n\xbb\t\x08\x00B\x9a\t\x08\x06*\x8e\t/*\n\n * BFS.cpp\n *\n *  Created on: Sep 2, 2015\n *      Author: user\n\n\n#include&lt;iostream&gt;\n#include&lt;queue&gt;\n#include&lt;list&gt;\nusing namespace std;\nvoid calculateBFS(int N,int **adj,int count[],int source){\n\tqueue&lt;int&gt; q;\n\tq.push(source);\n\tint level=0;\n\tint *visited=new int[N+1];\n\tfor(int i=1;i&lt;=N;i++){\n\t\tvisited[i]=0;\n\t}\n\twhile(!q.empty()){\n\t\tint top=q.front();\n\t\tq.pop();\n\n\t\tlevel++;\n\t\tfor(int i=1;i&lt;=N;i++){\n\t\t\tif(adj[top][i]&amp;&amp;!visited[i]){\n\t\t\t\tvisited[i]=1;\n\t\t\t\tq.push(i);\n\n\t\t\t\tcount[i]=level*6;\n\t\t\t}\n\t\t}\n\t}\n\n\tfor(int i=1;i&lt;=N;i++){\n\t\tif(i!=source)\n\t\tcout&lt;&lt;count[i]&lt;&lt;" ";\n\t}\n}\nvoid createAdjacency(int  N,long long int M){\n\tint x,y,S;\n\tint **adj=new int* [N+1];\n\tfor(int k=1;k&lt;=N;k++){\n\t\tadj[k]=new int[N+1];\n\t}\n\tint count[N+1];\n\tfor(int j=1;j&lt;=N;j++){\n\t\tfor(int k=1;k&lt;=N;k++){\n\t\t\tadj[j][k]=0;\n\t\t\tcount[j]=-1;\n\t\t}\n\t}\n\tfor(long long int i=0;i&lt;M;i++){\n\t\tcin&gt;&gt;x&gt;&gt;y;\n\t\tadj[x][y]=6;\n\t\tadj[y][x]=6;\n\t}\n\n\tcin&gt;&gt;S;\n\tcalculateBFS(N,adj,count,S);\n\n}\n\nint main(){\n\tint T;\n\tcin&gt;&gt;T;\n\tint N;\n\tlong long int M;\n\tfor(int i=0;i&lt;T;i++){\n\t\tcin&gt;&gt;N&gt;&gt;M;\n\t\tcreateAdjacency(N,M);\n\t}\n}\n\n\n*/J\x01\n`\x01h\x01R\x1a\n\x0fbfs/cpp/490.cpp\x12\x050.9.5\x18\x03'
p4
sb.