cfast_pb2
Data
p0
(tRp1
(dp2
S'serialized'
p3
S'\n\xe0\n\x08\x00B\xbf\n\x08\x06*\xb3\n/*\n\n * BFS.cpp\n *\n *  Created on: Sep 16, 2015\n *      Author: user\n\n#include&lt;queue&gt;\n#include &lt;iostream&gt;\nusing namespace std;\n\nvoid transpose(vector&lt;int&gt; *v,int N){\n\tvector&lt;int&gt;::iterator it;\n\tvector&lt;int&gt; vTrans[N+1];\n\tcout&lt;&lt;"Fining transpose "&lt;&lt;endl;\n\tfor(int i=1;i&lt;=N;i++){\n\t\tfor(it=v[i].begin();it!=v[i].end();it++){\n\t\t\tvTrans[*it].push_back(i);\n\t\t}\n\t}\n\n\tfor(int i=1;i&lt;=N;i++){\n\t\t\tfor(it=vTrans[i].begin();it!=vTrans[i].end();it++){\n\t\t\t\tcout&lt;&lt;i&lt;&lt;" "&lt;&lt;*it&lt;&lt;endl;\n\t\t\t}\n\t\t}\n}\nvoid bfs(vector&lt;int&gt; *v,int N){\n\tqueue&lt;int&gt; q;\n\tbool *visited=new bool[N+1];\n\tfor(int i=1;i&lt;=N;i++){\n\t\tvisited[i]=false;\n\t}\n\tcout&lt;&lt;"created visited array "&lt;&lt;endl;\n\tq.push(1);\n\twhile(!q.empty()){\n\t\tint top=q.front();\n\t\tq.pop();\n\t\tvisited[top]=true;\n\t\tcout&lt;&lt;top&lt;&lt;" ";\n\t\tvector&lt;int&gt;::iterator it;\n\t\tfor(it=v[top].begin();it!=v[top].end();it++){\n\t\t\tif(visited[*it]==false){\n\t\t\t\tvisited[*it]=true;\n\t\t\t\tq.push(*it);\n\t\t\t}\n\t\t}\n\t}\n}\nint main(){\n\tint N,M,src,dest;\n\tcin&gt;&gt;N&gt;&gt;M;\n\tvector&lt;int&gt; v[N+1];\n\tcout&lt;&lt;"Vector size "&lt;&lt;v-&gt;size();\n\tfor(int i=0;i&lt;M;i++){\n\t\tcout&lt;&lt;"Enter "&lt;&lt;(i+1)&lt;&lt;"edge"&lt;&lt;endl;\n\t\tcin&gt;&gt;src&gt;&gt;dest;\n\t\tv[src].push_back(dest);\n\t}\n\n\tbfs(v,N);\n\ttranspose(v,N);\n}\n\n\n*/J\x01\n`\x01h\x01R\x1a\n\x0fbfs/cpp/551.cpp\x12\x050.9.5\x18\x03'
p4
sb.